target datalayout = "e-m:e-p270:32:32-p271:32:32-p272:64:64-i64:64-i128:128-f80:128-n8:16:32:64-S128"
target triple = "x86_64-pc-linux-gnu"

%"struct.Yosys::RTLIL::IdString" = type { i32 }
%"struct.Yosys::AigNode" = type { %"struct.Yosys::RTLIL::IdString", i32, i8, i32, i32, %"class.std::vector" }
%"class.std::vector" = type { %"struct.std::_Vector_base" }
%"struct.std::_Vector_base" = type { %"struct.std::_Vector_base<std::pair<Yosys::RTLIL::IdString, int>, std::allocator<std::pair<Yosys::RTLIL::IdString, int>>>::_Vector_impl" }
%"struct.std::_Vector_base<std::pair<Yosys::RTLIL::IdString, int>, std::allocator<std::pair<Yosys::RTLIL::IdString, int>>>::_Vector_impl" = type { %"struct.std::_Vector_base<std::pair<Yosys::RTLIL::IdString, int>, std::allocator<std::pair<Yosys::RTLIL::IdString, int>>>::_Vector_impl_data" }
%"struct.std::_Vector_base<std::pair<Yosys::RTLIL::IdString, int>, std::allocator<std::pair<Yosys::RTLIL::IdString, int>>>::_Vector_impl_data" = type { ptr, ptr, ptr }

; Function Attrs: inlinehint mustprogress nounwind uwtable
define linkonce_odr noundef zeroext i1 @_ZNK5Yosys5RTLIL8IdStringneERKS1_(ptr noundef nonnull align 4 dereferenceable(4) %0, ptr noundef nonnull align 4 dereferenceable(4) %1) #5 comdat align 2 {
  %3 = alloca ptr, align 8
  %4 = alloca ptr, align 8
  store ptr %0, ptr %3, align 8, !tbaa !24
  store ptr %1, ptr %4, align 8, !tbaa !24
  %5 = load ptr, ptr %3, align 8
  %6 = getelementptr inbounds nuw %"struct.Yosys::RTLIL::IdString", ptr %5, i32 0, i32 0
  %7 = load i32, ptr %6, align 4, !tbaa !26
  %8 = load ptr, ptr %4, align 8, !tbaa !24
  %9 = getelementptr inbounds nuw %"struct.Yosys::RTLIL::IdString", ptr %8, i32 0, i32 0
  %10 = load i32, ptr %9, align 4, !tbaa !26
  %11 = icmp ne i32 %7, %10
  ret i1 %11
}

; Function Attrs: mustprogress uwtable
define noundef zeroext i1 @_ZNK5Yosys7AigNodeeqERKS0_(ptr noundef nonnull align 8 dereferenceable(48) %0, ptr noundef nonnull align 8 dereferenceable(48) %1) #4 align 2 {
  %3 = alloca i1, align 1
  %4 = alloca ptr, align 8
  %5 = alloca ptr, align 8
  store ptr %0, ptr %4, align 8, !tbaa !6
  store ptr %1, ptr %5, align 8, !tbaa !6
  %6 = load ptr, ptr %4, align 8
  %7 = getelementptr inbounds nuw %"struct.Yosys::AigNode", ptr %6, i32 0, i32 0
  %8 = load ptr, ptr %5, align 8, !tbaa !6
  %9 = getelementptr inbounds nuw %"struct.Yosys::AigNode", ptr %8, i32 0, i32 0
  %10 = call noundef zeroext i1 @_ZNK5Yosys5RTLIL8IdStringneERKS1_(ptr noundef nonnull align 4 dereferenceable(4) %7, ptr noundef nonnull align 4 dereferenceable(4) %9)
  br i1 %10, label %11, label %12

11:                                               ; preds = %2
  store i1 false, ptr %3, align 1
  br label %49

12:                                               ; preds = %2
  %13 = getelementptr inbounds nuw %"struct.Yosys::AigNode", ptr %6, i32 0, i32 1
  %14 = load i32, ptr %13, align 4, !tbaa !11
  %15 = load ptr, ptr %5, align 8, !tbaa !6
  %16 = getelementptr inbounds nuw %"struct.Yosys::AigNode", ptr %15, i32 0, i32 1
  %17 = load i32, ptr %16, align 4, !tbaa !11
  %18 = icmp ne i32 %14, %17
  br i1 %18, label %19, label %20

19:                                               ; preds = %12
  store i1 false, ptr %3, align 1
  br label %49

20:                                               ; preds = %12
  %21 = getelementptr inbounds nuw %"struct.Yosys::AigNode", ptr %6, i32 0, i32 2
  %22 = load i8, ptr %21, align 8, !tbaa !21, !range !29, !noundef !30
  %23 = trunc i8 %22 to i1
  %24 = zext i1 %23 to i32
  %25 = load ptr, ptr %5, align 8, !tbaa !6
  %26 = getelementptr inbounds nuw %"struct.Yosys::AigNode", ptr %25, i32 0, i32 2
  %27 = load i8, ptr %26, align 8, !tbaa !21, !range !29, !noundef !30
  %28 = trunc i8 %27 to i1
  %29 = zext i1 %28 to i32
  %30 = icmp ne i32 %24, %29
  br i1 %30, label %31, label %32

31:                                               ; preds = %20
  store i1 false, ptr %3, align 1
  br label %49

32:                                               ; preds = %20
  %33 = getelementptr inbounds nuw %"struct.Yosys::AigNode", ptr %6, i32 0, i32 3
  %34 = load i32, ptr %33, align 4, !tbaa !22
  %35 = load ptr, ptr %5, align 8, !tbaa !6
  %36 = getelementptr inbounds nuw %"struct.Yosys::AigNode", ptr %35, i32 0, i32 3
  %37 = load i32, ptr %36, align 4, !tbaa !22
  %38 = icmp ne i32 %34, %37
  br i1 %38, label %39, label %40

39:                                               ; preds = %32
  store i1 false, ptr %3, align 1
  br label %49

40:                                               ; preds = %32
  %41 = getelementptr inbounds nuw %"struct.Yosys::AigNode", ptr %6, i32 0, i32 4
  %42 = load i32, ptr %41, align 8, !tbaa !23
  %43 = load ptr, ptr %5, align 8, !tbaa !6
  %44 = getelementptr inbounds nuw %"struct.Yosys::AigNode", ptr %43, i32 0, i32 4
  %45 = load i32, ptr %44, align 8, !tbaa !23
  %46 = icmp ne i32 %42, %45
  br i1 %46, label %47, label %48

47:                                               ; preds = %40
  store i1 false, ptr %3, align 1
  br label %49

48:                                               ; preds = %40
  store i1 true, ptr %3, align 1
  br label %49

49:                                               ; preds = %48, %47, %39, %31, %19, %11
  %50 = load i1, ptr %3, align 1
  ret i1 %50
}