; Function Attrs: mustprogress nofree norecurse nosync nounwind willreturn memory(argmem: read) uwtable
define noundef zeroext i1 @_ZNK5Yosys7AigNodeeqERKS0_(ptr noundef nonnull readonly align 8 captures(none) dereferenceable(48) %0, ptr noundef nonnull readonly align 8 captures(none) dereferenceable(48) %1) local_unnamed_addr #4 align 2 {
  %3 = load i32, ptr %0, align 8, !tbaa !6
  %4 = load i32, ptr %1, align 8, !tbaa !6
  %.not10 = icmp eq i32 %3, %4
  br i1 %.not10, label %5, label %25

5:                                                ; preds = %2
  %6 = getelementptr inbounds nuw i8, ptr %0, i64 4
  %7 = load i32, ptr %6, align 4, !tbaa !11
  %8 = getelementptr inbounds nuw i8, ptr %1, i64 4
  %9 = load i32, ptr %8, align 4, !tbaa !11
  %.not = icmp eq i32 %7, %9
  br i1 %.not, label %10, label %25

10:                                               ; preds = %5
  %11 = getelementptr inbounds nuw i8, ptr %0, i64 8
  %12 = load i8, ptr %11, align 8, !tbaa !20, !range !23, !noundef !24
  %13 = getelementptr inbounds nuw i8, ptr %1, i64 8
  %14 = load i8, ptr %13, align 8, !tbaa !20, !range !23, !noundef !24
  %.not7 = icmp eq i8 %12, %14
  br i1 %.not7, label %15, label %25

15:                                               ; preds = %10
  %16 = getelementptr inbounds nuw i8, ptr %0, i64 12
  %17 = load i32, ptr %16, align 4, !tbaa !21
  %18 = getelementptr inbounds nuw i8, ptr %1, i64 12
  %19 = load i32, ptr %18, align 4, !tbaa !21
  %.not8 = icmp eq i32 %17, %19
  br i1 %.not8, label %20, label %25

20:                                               ; preds = %15
  %21 = getelementptr inbounds nuw i8, ptr %0, i64 16
  %22 = load i32, ptr %21, align 8, !tbaa !22
  %23 = getelementptr inbounds nuw i8, ptr %1, i64 16
  %24 = load i32, ptr %23, align 8, !tbaa !22
  %.not9 = icmp eq i32 %22, %24
  br label %25

25:                                               ; preds = %20, %15, %10, %5, %2
  %.0 = phi i1 [ false, %2 ], [ false, %5 ], [ false, %10 ], [ false, %15 ], [ %.not9, %20 ]
  ret i1 %.0
}